target datalayout = "e-m:e-p270:32:32-p271:32:32-p272:64:64-i64:64-i128:128-f80:128-n8:16:32:64-S128"
target triple = "x86_64-pc-linux-gnu"

@H5_libinit_g = external global i8, align 1
@H5_libterm_g = external global i8, align 1
@H5T_NATIVE_DOUBLE_g = external global i64, align 8

; Function Attrs: nounwind uwtable
define i32 @H5LTset_attribute_double(i64 noundef %0, ptr noundef %1, ptr noundef %2, ptr noundef %3, i64 noundef %4) #0 {
  %6 = alloca i32, align 4
  %7 = alloca i64, align 8
  %8 = alloca ptr, align 8
  %9 = alloca ptr, align 8
  %10 = alloca ptr, align 8
  %11 = alloca i64, align 8
  store i64 %0, ptr %7, align 8, !tbaa !3
  store ptr %1, ptr %8, align 8, !tbaa !7
  store ptr %2, ptr %9, align 8, !tbaa !7
  store ptr %3, ptr %10, align 8, !tbaa !26
  store i64 %4, ptr %11, align 8, !tbaa !3
  %12 = load i64, ptr %7, align 8, !tbaa !3
  %13 = load ptr, ptr %8, align 8, !tbaa !7
  %14 = load ptr, ptr %9, align 8, !tbaa !7
  %15 = load i64, ptr %11, align 8, !tbaa !3
  %16 = load i8, ptr @H5_libinit_g, align 1, !tbaa !16, !range !18, !noundef !19
  %17 = trunc i8 %16 to i1
  br i1 %17, label %22, label %18

18:                                               ; preds = %5
  %19 = load i8, ptr @H5_libterm_g, align 1, !tbaa !16, !range !18, !noundef !19
  %20 = trunc i8 %19 to i1
  %21 = xor i1 %20, true
  br label %22

22:                                               ; preds = %18, %5
  %23 = phi i1 [ false, %5 ], [ %21, %18 ]
  %24 = xor i1 %23, true
  %25 = xor i1 %24, true
  %26 = zext i1 %25 to i32
  %27 = sext i32 %26 to i64
  %28 = call i64 @llvm.expect.i64(i64 %27, i64 0)
  %29 = icmp ne i64 %28, 0
  br i1 %29, label %30, label %32

30:                                               ; preds = %22
  %31 = call i32 @H5open()
  br label %33

32:                                               ; preds = %22
  br label %33

33:                                               ; preds = %32, %30
  %34 = load i64, ptr @H5T_NATIVE_DOUBLE_g, align 8, !tbaa !3
  %35 = load ptr, ptr %10, align 8, !tbaa !26
  %36 = call i32 @H5LT_set_attribute_numerical(i64 noundef %12, ptr noundef %13, ptr noundef %14, i64 noundef %15, i64 noundef %34, ptr noundef %35)
  %37 = icmp slt i32 %36, 0
  br i1 %37, label %38, label %39

38:                                               ; preds = %33
  store i32 -1, ptr %6, align 4
  br label %40

39:                                               ; preds = %33
  store i32 0, ptr %6, align 4
  br label %40

40:                                               ; preds = %39, %38
  %41 = load i32, ptr %6, align 4
  ret i32 %41
}